; Function Attrs: mustprogress uwtable
define void @_ZNK11OpenImageIO6v3_1_011ColorConfig7resolveENS0_17basic_string_viewIcSt11char_traitsIcEEE(ptr dead_on_unwind noalias writable writeonly sret(%"class.OpenImageIO::v3_1_0::basic_string_view") align 8 captures(none) %0, ptr noundef nonnull readonly align 8 captures(none) dereferenceable(8) %1, ptr noundef readonly captures(none) %2) local_unnamed_addr #5 align 2 {
  %4 = alloca %"class.OpenImageIO::v3_1_0::basic_string_view", align 8
  %5 = load ptr, ptr %1, align 8, !tbaa !140
  %6 = load ptr, ptr %2, align 8, !tbaa !4
  store ptr %6, ptr %4, align 8, !tbaa !4
  %7 = getelementptr inbounds nuw i8, ptr %4, i64 8
  %8 = getelementptr inbounds nuw i8, ptr %2, i64 8
  %9 = load i64, ptr %8, align 8, !tbaa !11
  store i64 %9, ptr %7, align 8, !tbaa !11
  call void @_ZNK11OpenImageIO6v3_1_011ColorConfig4Impl7resolveENS0_17basic_string_viewIcSt11char_traitsIcEEE(ptr dead_on_unwind writable sret(%"class.OpenImageIO::v3_1_0::basic_string_view") align 8 %0, ptr noundef nonnull align 8 dereferenceable(385) %5, ptr noundef nonnull %4)
  ret void
}